; Function Attrs: nounwind uwtable
define internal range(i32 0, 2) i32 @test_PACKET_get_length_prefixed_2() #0 {
  %1 = alloca [1024 x i8], align 16
  call void @llvm.lifetime.start.p0(i64 1024, ptr nonnull %1) #6
  br label %2

2:                                                ; preds = %0, %2
  %indvars.iv = phi i64 [ 1, %0 ], [ %indvars.iv.next, %2 ]
  %storemerge.tr = trunc i64 %indvars.iv to i8
  %3 = shl i8 %storemerge.tr, 1
  %4 = add nsw i64 %indvars.iv, -1
  %5 = getelementptr inbounds nuw [1024 x i8], ptr %1, i64 0, i64 %4
  store i8 %3, ptr %5, align 1, !tbaa !4
  %indvars.iv.next = add nuw nsw i64 %indvars.iv, 1
  %exitcond.not = icmp eq i64 %indvars.iv.next, 1025
  br i1 %exitcond.not, label %6, label %2, !llvm.loop !10

6:                                                ; preds = %2
  %7 = tail call i32 @test_true(ptr noundef nonnull @.str.25, i32 noundef 384, ptr noundef nonnull @.str.111, i32 noundef 1) #6
  %.not = icmp eq i32 %7, 0
  br i1 %.not, label %39, label %8

8:                                                ; preds = %6
  %9 = tail call i32 @test_true(ptr noundef nonnull @.str.25, i32 noundef 385, ptr noundef nonnull @.str.106, i32 noundef 1) #6
  %.not2 = icmp eq i32 %9, 0
  br i1 %.not2, label %39, label %PACKET_get_length_prefixed_2.exit

PACKET_get_length_prefixed_2.exit:                ; preds = %8
  %10 = load i8, ptr %1, align 16, !tbaa !4
  %11 = zext i8 %10 to i64
  %12 = shl nuw nsw i64 %11, 8
  %13 = getelementptr inbounds nuw i8, ptr %1, i64 1
  %14 = load i8, ptr %13, align 1, !tbaa !4
  %15 = zext i8 %14 to i64
  %16 = or disjoint i64 %12, %15
  %17 = icmp samesign ult i64 %16, 1023
  %18 = getelementptr inbounds nuw i8, ptr %1, i64 2
  %.sroa.7.0 = select i1 %17, i64 %16, i64 0
  %.0.i = zext i1 %17 to i32
  %19 = tail call i32 @test_true(ptr noundef nonnull @.str.25, i32 noundef 386, ptr noundef nonnull @.str.112, i32 noundef %.0.i) #6
  %.not3 = icmp eq i32 %19, 0
  br i1 %.not3, label %39, label %20

20:                                               ; preds = %PACKET_get_length_prefixed_2.exit
  %21 = tail call i32 @test_size_t_eq(ptr noundef nonnull @.str.25, i32 noundef 387, ptr noundef nonnull @.str.68, ptr noundef nonnull @.str.84, i64 noundef %.sroa.7.0, i64 noundef 516) #6
  %.not4 = icmp eq i32 %21, 0
  br i1 %.not4, label %39, label %22

22:                                               ; preds = %20
  %23 = icmp samesign ult i64 %.sroa.7.0, 2
  br i1 %23, label %PACKET_get_net_2.exit, label %24

24:                                               ; preds = %22
  %25 = load i8, ptr %18, align 2, !tbaa !4
  %26 = zext i8 %25 to i32
  %27 = shl nuw nsw i32 %26, 8
  %.sroa.gep = getelementptr inbounds nuw i8, ptr %1, i64 3
  %.sroa.0.0.sroa.sel = select i1 %17, ptr %.sroa.gep, ptr inttoptr (i64 1 to ptr)
  %28 = load i8, ptr %.sroa.0.0.sroa.sel, align 1, !tbaa !4
  %29 = zext i8 %28 to i32
  %30 = or disjoint i32 %27, %29
  br label %PACKET_get_net_2.exit

PACKET_get_net_2.exit:                            ; preds = %22, %24
  %.022 = phi i32 [ 1025, %22 ], [ %30, %24 ]
  %.0.i10 = phi i32 [ 0, %22 ], [ 1, %24 ]
  %31 = tail call i32 @test_true(ptr noundef nonnull @.str.25, i32 noundef 388, ptr noundef nonnull @.str.108, i32 noundef %.0.i10) #6
  %.not5 = icmp eq i32 %31, 0
  br i1 %.not5, label %39, label %32

32:                                               ; preds = %PACKET_get_net_2.exit
  %33 = tail call i32 @test_uint_eq(ptr noundef nonnull @.str.25, i32 noundef 389, ptr noundef nonnull @.str.47, ptr noundef nonnull @.str.113, i32 noundef %.022, i32 noundef 1544) #6
  %.not6 = icmp eq i32 %33, 0
  br i1 %.not6, label %39, label %PACKET_get_length_prefixed_2.exit15

PACKET_get_length_prefixed_2.exit15:              ; preds = %32
  %34 = icmp samesign ult i64 %16, 515
  %spec.select24 = zext i1 %34 to i32
  %35 = tail call i32 @test_false(ptr noundef nonnull @.str.25, i32 noundef 390, ptr noundef nonnull @.str.114, i32 noundef %spec.select24) #6
  %.not7 = icmp eq i32 %35, 0
  br i1 %.not7, label %39, label %36

36:                                               ; preds = %PACKET_get_length_prefixed_2.exit15
  %37 = sub nuw nsw i64 514, %16
  %spec.select23 = select i1 %34, i64 %37, i64 516
  %38 = tail call i32 @test_size_t_eq(ptr noundef nonnull @.str.25, i32 noundef 391, ptr noundef nonnull @.str.110, ptr noundef nonnull @.str.84, i64 noundef %spec.select23, i64 noundef 516) #6
  %.not8 = icmp ne i32 %38, 0
  %spec.select = zext i1 %.not8 to i32
  br label %39

39:                                               ; preds = %36, %6, %8, %PACKET_get_length_prefixed_2.exit, %20, %PACKET_get_net_2.exit, %32, %PACKET_get_length_prefixed_2.exit15
  %.0 = phi i32 [ 0, %PACKET_get_length_prefixed_2.exit15 ], [ 0, %32 ], [ 0, %PACKET_get_net_2.exit ], [ 0, %20 ], [ 0, %PACKET_get_length_prefixed_2.exit ], [ 0, %8 ], [ 0, %6 ], [ %spec.select, %36 ]
  call void @llvm.lifetime.end.p0(i64 1024, ptr nonnull %1) #6
  ret i32 %.0
}